target datalayout = "e-m:e-p270:32:32-p271:32:32-p272:64:64-i64:64-i128:128-f80:128-n8:16:32:64-S128"
target triple = "x86_64-pc-linux-gnu"

%struct.redisObject = type { i32, i32, ptr }

@.str.89 = private unnamed_addr constant [63 x i8] c"-WRONGPASS invalid username-password pair or user is disabled.\00", align 1

; Function Attrs: nounwind uwtable
define dso_local void @addAuthErrReply(ptr noundef %0, ptr noundef %1) #0 {
  %3 = alloca ptr, align 8
  %4 = alloca ptr, align 8
  store ptr %0, ptr %3, align 8, !tbaa !95
  store ptr %1, ptr %4, align 8, !tbaa !151
  %5 = load ptr, ptr %3, align 8, !tbaa !95
  %6 = call i32 @clientHasPendingReplies(ptr noundef %5)
  %7 = icmp ne i32 %6, 0
  br i1 %7, label %8, label %9

8:                                                ; preds = %2
  br label %19

9:                                                ; preds = %2
  %10 = load ptr, ptr %4, align 8, !tbaa !151
  %11 = icmp ne ptr %10, null
  br i1 %11, label %14, label %12

12:                                               ; preds = %9
  %13 = load ptr, ptr %3, align 8, !tbaa !95
  call void @addReplyError(ptr noundef %13, ptr noundef @.str.89)
  br label %19

14:                                               ; preds = %9
  %15 = load ptr, ptr %3, align 8, !tbaa !95
  %16 = load ptr, ptr %4, align 8, !tbaa !151
  %17 = getelementptr inbounds nuw %struct.redisObject, ptr %16, i32 0, i32 2
  %18 = load ptr, ptr %17, align 8, !tbaa !152
  call void @addReplyError(ptr noundef %15, ptr noundef %18)
  br label %19

19:                                               ; preds = %14, %12, %8
  ret void
}