; Function Attrs: nounwind uwtable
define dso_local void @addAuthErrReply(ptr noundef %0, ptr noundef readonly captures(address_is_null) %1) local_unnamed_addr #0 {
  %3 = tail call i32 @clientHasPendingReplies(ptr noundef %0) #25
  %.not = icmp eq i32 %3, 0
  br i1 %.not, label %4, label %8

4:                                                ; preds = %2
  %.not5 = icmp eq ptr %1, null
  br i1 %.not5, label %.sink.split, label %5

5:                                                ; preds = %4
  %6 = getelementptr inbounds nuw i8, ptr %1, i64 8
  %7 = load ptr, ptr %6, align 8, !tbaa !144
  br label %.sink.split

.sink.split:                                      ; preds = %4, %5
  %.sink = phi ptr [ %7, %5 ], [ @.str.89, %4 ]
  tail call void @addReplyError(ptr noundef %0, ptr noundef %.sink) #25
  br label %8

8:                                                ; preds = %.sink.split, %2
  ret void
}